; Function Attrs: nounwind uwtable
define ptr @php_dom_xpath_callbacks_get_gc_for_whole_object(ptr nocapture noundef readonly %0, ptr noundef %1, ptr noundef %2, ptr noundef %3) local_unnamed_addr #0 {
  %5 = load ptr, ptr %0, align 8
  %.not = icmp eq ptr %5, null
  br i1 %.not, label %6, label %9

6:                                                ; preds = %4
  %7 = getelementptr inbounds i8, ptr %0, i64 8
  %8 = load ptr, ptr %7, align 8
  %.not19 = icmp eq ptr %8, null
  br i1 %.not19, label %30, label %9

9:                                                ; preds = %6, %4
  %10 = tail call ptr @zend_get_gc_buffer_create() #9
  tail call void @php_dom_xpath_callbacks_get_gc(ptr noundef nonnull %0, ptr noundef %10)
  %11 = getelementptr inbounds i8, ptr %10, i64 16
  %12 = load ptr, ptr %11, align 8
  store ptr %12, ptr %2, align 8
  %13 = load ptr, ptr %10, align 8
  %14 = ptrtoint ptr %13 to i64
  %15 = ptrtoint ptr %12 to i64
  %16 = sub i64 %14, %15
  %17 = lshr exact i64 %16, 4
  %18 = trunc i64 %17 to i32
  store i32 %18, ptr %3, align 4
  %19 = getelementptr inbounds i8, ptr %1, i64 32
  %20 = load ptr, ptr %19, align 8
  %21 = icmp eq ptr %20, null
  br i1 %21, label %22, label %28

22:                                               ; preds = %9
  %23 = getelementptr inbounds i8, ptr %1, i64 16
  %24 = load ptr, ptr %23, align 8
  %25 = getelementptr inbounds i8, ptr %24, i64 32
  %26 = load i32, ptr %25, align 8
  %27 = icmp eq i32 %26, 0
  br i1 %27, label %32, label %28

28:                                               ; preds = %22, %9
  %29 = tail call ptr @zend_std_get_properties(ptr noundef nonnull %1) #9
  br label %32

30:                                               ; preds = %6
  %31 = tail call ptr @zend_std_get_gc(ptr noundef %1, ptr noundef %2, ptr noundef %3) #9
  br label %32

32:                                               ; preds = %22, %30, %28
  %.0 = phi ptr [ %29, %28 ], [ %31, %30 ], [ null, %22 ]
  ret ptr %.0
}